target datalayout = "e-m:e-p270:32:32-p271:32:32-p272:64:64-i64:64-i128:128-f80:128-n8:16:32:64-S128"
target triple = "x86_64-pc-linux-gnu"

%"class.std::__cxx11::basic_string" = type { %"struct.std::__cxx11::basic_string<char>::_Alloc_hider", i64, %union.anon }
%"struct.std::__cxx11::basic_string<char>::_Alloc_hider" = type { ptr }
%union.anon = type { i64, [8 x i8] }
%"class.Assimp::Ogre::Mesh" = type { i8, %"class.std::__cxx11::basic_string", ptr, ptr, %"class.std::vector.54", %"class.std::vector.59", %"class.std::vector.64" }
%"class.std::vector.54" = type { %"struct.std::_Vector_base.55" }
%"struct.std::_Vector_base.55" = type { %"struct.std::_Vector_base<Assimp::Ogre::SubMesh *, std::allocator<Assimp::Ogre::SubMesh *>>::_Vector_impl" }
%"struct.std::_Vector_base<Assimp::Ogre::SubMesh *, std::allocator<Assimp::Ogre::SubMesh *>>::_Vector_impl" = type { %"struct.std::_Vector_base<Assimp::Ogre::SubMesh *, std::allocator<Assimp::Ogre::SubMesh *>>::_Vector_impl_data" }
%"struct.std::_Vector_base<Assimp::Ogre::SubMesh *, std::allocator<Assimp::Ogre::SubMesh *>>::_Vector_impl_data" = type { ptr, ptr, ptr }
%"class.std::vector.59" = type { %"struct.std::_Vector_base.60" }
%"struct.std::_Vector_base.60" = type { %"struct.std::_Vector_base<Assimp::Ogre::Animation *, std::allocator<Assimp::Ogre::Animation *>>::_Vector_impl" }
%"struct.std::_Vector_base<Assimp::Ogre::Animation *, std::allocator<Assimp::Ogre::Animation *>>::_Vector_impl" = type { %"struct.std::_Vector_base<Assimp::Ogre::Animation *, std::allocator<Assimp::Ogre::Animation *>>::_Vector_impl_data" }
%"struct.std::_Vector_base<Assimp::Ogre::Animation *, std::allocator<Assimp::Ogre::Animation *>>::_Vector_impl_data" = type { ptr, ptr, ptr }
%"class.std::vector.64" = type { %"struct.std::_Vector_base.65" }
%"struct.std::_Vector_base.65" = type { %"struct.std::_Vector_base<Assimp::Ogre::Pose *, std::allocator<Assimp::Ogre::Pose *>>::_Vector_impl" }
%"struct.std::_Vector_base<Assimp::Ogre::Pose *, std::allocator<Assimp::Ogre::Pose *>>::_Vector_impl" = type { %"struct.std::_Vector_base<Assimp::Ogre::Pose *, std::allocator<Assimp::Ogre::Pose *>>::_Vector_impl_data" }
%"struct.std::_Vector_base<Assimp::Ogre::Pose *, std::allocator<Assimp::Ogre::Pose *>>::_Vector_impl_data" = type { ptr, ptr, ptr }

; Function Attrs: mustprogress nounwind uwtable
define linkonce_odr hidden noundef i64 @_ZNKSt6vectorIPN6Assimp4Ogre7SubMeshESaIS3_EE4sizeEv(ptr noundef nonnull align 8 dereferenceable(24) %0) #0 comdat align 2 {
  %2 = alloca ptr, align 8
  store ptr %0, ptr %2, align 8
  %3 = load ptr, ptr %2, align 8
  %4 = getelementptr inbounds nuw %"struct.std::_Vector_base.55", ptr %3, i32 0, i32 0
  %5 = getelementptr inbounds nuw %"struct.std::_Vector_base<Assimp::Ogre::SubMesh *, std::allocator<Assimp::Ogre::SubMesh *>>::_Vector_impl_data", ptr %4, i32 0, i32 1
  %6 = load ptr, ptr %5, align 8
  %7 = getelementptr inbounds nuw %"struct.std::_Vector_base.55", ptr %3, i32 0, i32 0
  %8 = getelementptr inbounds nuw %"struct.std::_Vector_base<Assimp::Ogre::SubMesh *, std::allocator<Assimp::Ogre::SubMesh *>>::_Vector_impl_data", ptr %7, i32 0, i32 0
  %9 = load ptr, ptr %8, align 8
  %10 = ptrtoint ptr %6 to i64
  %11 = ptrtoint ptr %9 to i64
  %12 = sub i64 %10, %11
  %13 = sdiv exact i64 %12, 8
  ret i64 %13
}

; Function Attrs: mustprogress nounwind uwtable
define hidden noundef i64 @_ZNK6Assimp4Ogre4Mesh12NumSubMeshesEv(ptr noundef nonnull align 8 dereferenceable(128) %0) #0 align 2 {
  %2 = alloca ptr, align 8
  store ptr %0, ptr %2, align 8
  %3 = load ptr, ptr %2, align 8
  %4 = getelementptr inbounds nuw %"class.Assimp::Ogre::Mesh", ptr %3, i32 0, i32 4
  %5 = call noundef i64 @_ZNKSt6vectorIPN6Assimp4Ogre7SubMeshESaIS3_EE4sizeEv(ptr noundef nonnull align 8 dereferenceable(24) %4) #20
  ret i64 %5
}